target datalayout = "e-m:e-p270:32:32-p271:32:32-p272:64:64-i64:64-i128:128-f80:128-n8:16:32:64-S128"
target triple = "x86_64-unknown-linux-gnu"

%"class.icu_75::UVector" = type { %"class.icu_75::UObject", i32, i32, ptr, ptr, ptr }
%"class.icu_75::UObject" = type { ptr }
%union.UElement = type { ptr }

; Function Attrs: mustprogress uwtable
define noundef signext i8 @_ZNK6icu_757UVector6equalsERKS0_(ptr noundef nonnull align 8 dereferenceable(40) %this, ptr noundef nonnull align 8 dereferenceable(40) %other) #1 align 2 {
entry:
  %retval = alloca i8, align 1
  %this.addr = alloca ptr, align 8
  %other.addr = alloca ptr, align 8
  %i = alloca i32, align 4
  %key = alloca %union.UElement, align 8
  %agg.tmp = alloca %union.UElement, align 8
  %agg.tmp21 = alloca %union.UElement, align 8
  store ptr %this, ptr %this.addr, align 8
  store ptr %other, ptr %other.addr, align 8
  %this1 = load ptr, ptr %this.addr, align 8
  %count = getelementptr inbounds %"class.icu_75::UVector", ptr %this1, i32 0, i32 1
  %0 = load i32, ptr %count, align 8
  %1 = load ptr, ptr %other.addr, align 8
  %count2 = getelementptr inbounds %"class.icu_75::UVector", ptr %1, i32 0, i32 1
  %2 = load i32, ptr %count2, align 8
  %cmp = icmp ne i32 %0, %2
  br i1 %cmp, label %if.then, label %if.end

if.then:                                          ; preds = %entry
  store i8 0, ptr %retval, align 1
  br label %return

if.end:                                           ; preds = %entry
  %comparer = getelementptr inbounds %"class.icu_75::UVector", ptr %this1, i32 0, i32 5
  %3 = load ptr, ptr %comparer, align 8
  %cmp3 = icmp eq ptr %3, null
  br i1 %cmp3, label %if.then4, label %if.else

if.then4:                                         ; preds = %if.end
  store i32 0, ptr %i, align 4
  br label %for.cond

for.cond:                                         ; preds = %for.inc, %if.then4
  %4 = load i32, ptr %i, align 4
  %count5 = getelementptr inbounds %"class.icu_75::UVector", ptr %this1, i32 0, i32 1
  %5 = load i32, ptr %count5, align 8
  %cmp6 = icmp slt i32 %4, %5
  br i1 %cmp6, label %for.body, label %for.end

for.body:                                         ; preds = %for.cond
  %elements = getelementptr inbounds %"class.icu_75::UVector", ptr %this1, i32 0, i32 3
  %6 = load ptr, ptr %elements, align 8
  %7 = load i32, ptr %i, align 4
  %idxprom = sext i32 %7 to i64
  %arrayidx = getelementptr inbounds %union.UElement, ptr %6, i64 %idxprom
  %8 = load ptr, ptr %arrayidx, align 8
  %9 = load ptr, ptr %other.addr, align 8
  %elements7 = getelementptr inbounds %"class.icu_75::UVector", ptr %9, i32 0, i32 3
  %10 = load ptr, ptr %elements7, align 8
  %11 = load i32, ptr %i, align 4
  %idxprom8 = sext i32 %11 to i64
  %arrayidx9 = getelementptr inbounds %union.UElement, ptr %10, i64 %idxprom8
  %12 = load ptr, ptr %arrayidx9, align 8
  %cmp10 = icmp ne ptr %8, %12
  br i1 %cmp10, label %if.then11, label %if.end12

if.then11:                                        ; preds = %for.body
  store i8 0, ptr %retval, align 1
  br label %return

if.end12:                                         ; preds = %for.body
  br label %for.inc

for.inc:                                          ; preds = %if.end12
  %13 = load i32, ptr %i, align 4
  %inc = add nsw i32 %13, 1
  store i32 %inc, ptr %i, align 4
  br label %for.cond, !llvm.loop !19

for.end:                                          ; preds = %for.cond
  br label %if.end31

if.else:                                          ; preds = %if.end
  store i32 0, ptr %i, align 4
  br label %for.cond13

for.cond13:                                       ; preds = %for.inc28, %if.else
  %14 = load i32, ptr %i, align 4
  %count14 = getelementptr inbounds %"class.icu_75::UVector", ptr %this1, i32 0, i32 1
  %15 = load i32, ptr %count14, align 8
  %cmp15 = icmp slt i32 %14, %15
  br i1 %cmp15, label %for.body16, label %for.end30

for.body16:                                       ; preds = %for.cond13
  %16 = load ptr, ptr %other.addr, align 8
  %elements17 = getelementptr inbounds %"class.icu_75::UVector", ptr %16, i32 0, i32 3
  %17 = load ptr, ptr %elements17, align 8
  %18 = load i32, ptr %i, align 4
  %idxprom18 = sext i32 %18 to i64
  %arrayidx19 = getelementptr inbounds %union.UElement, ptr %17, i64 %idxprom18
  store ptr %arrayidx19, ptr %key, align 8
  %comparer20 = getelementptr inbounds %"class.icu_75::UVector", ptr %this1, i32 0, i32 5
  %19 = load ptr, ptr %comparer20, align 8
  call void @llvm.memcpy.p0.p0.i64(ptr align 8 %agg.tmp, ptr align 8 %key, i64 8, i1 false)
  %elements22 = getelementptr inbounds %"class.icu_75::UVector", ptr %this1, i32 0, i32 3
  %20 = load ptr, ptr %elements22, align 8
  %21 = load i32, ptr %i, align 4
  %idxprom23 = sext i32 %21 to i64
  %arrayidx24 = getelementptr inbounds %union.UElement, ptr %20, i64 %idxprom23
  call void @llvm.memcpy.p0.p0.i64(ptr align 8 %agg.tmp21, ptr align 8 %arrayidx24, i64 8, i1 false)
  %coerce.dive = getelementptr inbounds %union.UElement, ptr %agg.tmp, i32 0, i32 0
  %22 = load ptr, ptr %coerce.dive, align 8
  %coerce.dive25 = getelementptr inbounds %union.UElement, ptr %agg.tmp21, i32 0, i32 0
  %23 = load ptr, ptr %coerce.dive25, align 8
  %call = call noundef signext i8 %19(ptr %22, ptr %23)
  %tobool = icmp ne i8 %call, 0
  br i1 %tobool, label %if.end27, label %if.then26

if.then26:                                        ; preds = %for.body16
  store i8 0, ptr %retval, align 1
  br label %return

if.end27:                                         ; preds = %for.body16
  br label %for.inc28

for.inc28:                                        ; preds = %if.end27
  %24 = load i32, ptr %i, align 4
  %inc29 = add nsw i32 %24, 1
  store i32 %inc29, ptr %i, align 4
  br label %for.cond13, !llvm.loop !20

for.end30:                                        ; preds = %for.cond13
  br label %if.end31

if.end31:                                         ; preds = %for.end30, %for.end
  store i8 1, ptr %retval, align 1
  br label %return

return:                                           ; preds = %if.end31, %if.then26, %if.then11, %if.then
  %25 = load i8, ptr %retval, align 1
  ret i8 %25
}