; Function Attrs: mustprogress uwtable
define noundef signext i8 @_ZNK6icu_757UVector6equalsERKS0_(ptr nocapture noundef nonnull readonly align 8 dereferenceable(40) %this, ptr nocapture noundef nonnull readonly align 8 dereferenceable(40) %other) local_unnamed_addr #1 align 2 {
entry:
  %count = getelementptr inbounds i8, ptr %this, i64 8
  %0 = load i32, ptr %count, align 8
  %count2 = getelementptr inbounds i8, ptr %other, i64 8
  %1 = load i32, ptr %count2, align 8
  %cmp.not = icmp eq i32 %0, %1
  br i1 %cmp.not, label %if.end, label %return

if.end:                                           ; preds = %entry
  %comparer = getelementptr inbounds i8, ptr %this, i64 32
  %2 = load ptr, ptr %comparer, align 8
  %cmp3 = icmp eq ptr %2, null
  br i1 %cmp3, label %for.cond.preheader, label %for.cond13.preheader

for.cond13.preheader:                             ; preds = %if.end
  %elements17 = getelementptr inbounds i8, ptr %other, i64 16
  %cmp1512 = icmp sgt i32 %0, 0
  br i1 %cmp1512, label %for.body16.lr.ph, label %return

for.body16.lr.ph:                                 ; preds = %for.cond13.preheader
  %elements22 = getelementptr inbounds i8, ptr %this, i64 16
  br label %for.body16

for.cond.preheader:                               ; preds = %if.end
  %cmp615 = icmp sgt i32 %0, 0
  br i1 %cmp615, label %for.body.lr.ph, label %return

for.body.lr.ph:                                   ; preds = %for.cond.preheader
  %elements = getelementptr inbounds i8, ptr %this, i64 16
  %3 = load ptr, ptr %elements, align 8
  %elements7 = getelementptr inbounds i8, ptr %other, i64 16
  %4 = load ptr, ptr %elements7, align 8
  %wide.trip.count = zext nneg i32 %0 to i64
  br label %for.body

for.cond:                                         ; preds = %for.body
  %indvars.iv.next23 = add nuw nsw i64 %indvars.iv22, 1
  %exitcond.not = icmp eq i64 %indvars.iv.next23, %wide.trip.count
  br i1 %exitcond.not, label %return, label %for.body, !llvm.loop !22

for.body:                                         ; preds = %for.body.lr.ph, %for.cond
  %indvars.iv22 = phi i64 [ 0, %for.body.lr.ph ], [ %indvars.iv.next23, %for.cond ]
  %arrayidx = getelementptr inbounds %union.UElement, ptr %3, i64 %indvars.iv22
  %5 = load ptr, ptr %arrayidx, align 8
  %arrayidx9 = getelementptr inbounds %union.UElement, ptr %4, i64 %indvars.iv22
  %6 = load ptr, ptr %arrayidx9, align 8
  %cmp10.not = icmp eq ptr %5, %6
  br i1 %cmp10.not, label %for.cond, label %return

for.cond13:                                       ; preds = %for.body16
  %indvars.iv.next = add nuw nsw i64 %indvars.iv, 1
  %7 = load i32, ptr %count, align 8
  %8 = sext i32 %7 to i64
  %cmp15 = icmp slt i64 %indvars.iv.next, %8
  br i1 %cmp15, label %for.body16, label %return, !llvm.loop !23

for.body16:                                       ; preds = %for.body16.lr.ph, %for.cond13
  %indvars.iv = phi i64 [ 0, %for.body16.lr.ph ], [ %indvars.iv.next, %for.cond13 ]
  %9 = load ptr, ptr %elements17, align 8
  %arrayidx19 = getelementptr inbounds %union.UElement, ptr %9, i64 %indvars.iv
  %10 = load ptr, ptr %comparer, align 8
  %11 = load ptr, ptr %elements22, align 8
  %arrayidx24 = getelementptr inbounds %union.UElement, ptr %11, i64 %indvars.iv
  %agg.tmp21.sroa.0.0.copyload = load ptr, ptr %arrayidx24, align 8
  %call = tail call noundef signext i8 %10(ptr %arrayidx19, ptr %agg.tmp21.sroa.0.0.copyload)
  %tobool.not = icmp eq i8 %call, 0
  br i1 %tobool.not, label %return, label %for.cond13

return:                                           ; preds = %for.body16, %for.cond13, %for.body, %for.cond, %for.cond13.preheader, %for.cond.preheader, %entry
  %retval.0 = phi i8 [ 0, %entry ], [ 1, %for.cond.preheader ], [ 1, %for.cond13.preheader ], [ 0, %for.body ], [ 1, %for.cond ], [ 0, %for.body16 ], [ 1, %for.cond13 ]
  ret i8 %retval.0
}